; ModuleID = '58/702.c'
source_filename = "58/702.c"
target datalayout = "e-m:e-p270:32:32-p271:32:32-p272:64:64-i64:64-f80:128-n8:16:32:64-S128"
target triple = "x86_64-pc-linux-gnu"

@.str = private unnamed_addr constant [3 x i8] c"%d\00", align 1
@.str.1 = private unnamed_addr constant [3 x i8] c"1\0A\00", align 1
@.str.2 = private unnamed_addr constant [3 x i8] c"0\0A\00", align 1

; Function Attrs: noinline nounwind uwtable
define dso_local void @main() #0 {
  %1 = alloca i32, align 4
  %2 = alloca i32, align 4
  %3 = alloca i32, align 4
  %4 = alloca i32, align 4
  %5 = alloca i32, align 4
  %6 = alloca [85 x i8], align 16
  %7 = call i32 (i8*, ...) @__isoc99_scanf(i8* getelementptr inbounds ([3 x i8], [3 x i8]* @.str, i64 0, i64 0), i32* %2)
  %8 = call i32 @getchar()
  store i32 1, i32* %1, align 4
  br label %9

9:                                                ; preds = %117, %0
  %10 = load i32, i32* %1, align 4
  %11 = load i32, i32* %2, align 4
  %12 = icmp sle i32 %10, %11
  br i1 %12, label %13, label %120

13:                                               ; preds = %9
  %14 = getelementptr inbounds [85 x i8], [85 x i8]* %6, i64 0, i64 0
  %15 = call i32 (i8*, ...) bitcast (i32 (...)* @gets to i32 (i8*, ...)*)(i8* %14)
  %16 = getelementptr inbounds [85 x i8], [85 x i8]* %6, i64 0, i64 0
  %17 = call i64 @strlen(i8* %16) #3
  %18 = trunc i64 %17 to i32
  store i32 %18, i32* %4, align 4
  %19 = getelementptr inbounds [85 x i8], [85 x i8]* %6, i64 0, i64 0
  %20 = load i8, i8* %19, align 16
  %21 = sext i8 %20 to i32
  %22 = icmp eq i32 %21, 95
  br i1 %22, label %43, label %23

23:                                               ; preds = %13
  %24 = getelementptr inbounds [85 x i8], [85 x i8]* %6, i64 0, i64 0
  %25 = load i8, i8* %24, align 16
  %26 = sext i8 %25 to i32
  %27 = icmp sge i32 %26, 97
  br i1 %27, label %28, label %33

28:                                               ; preds = %23
  %29 = getelementptr inbounds [85 x i8], [85 x i8]* %6, i64 0, i64 0
  %30 = load i8, i8* %29, align 16
  %31 = sext i8 %30 to i32
  %32 = icmp sle i32 %31, 122
  br i1 %32, label %43, label %33

33:                                               ; preds = %28, %23
  %34 = getelementptr inbounds [85 x i8], [85 x i8]* %6, i64 0, i64 0
  %35 = load i8, i8* %34, align 16
  %36 = sext i8 %35 to i32
  %37 = icmp sge i32 %36, 65
  br i1 %37, label %38, label %44

38:                                               ; preds = %33
  %39 = getelementptr inbounds [85 x i8], [85 x i8]* %6, i64 0, i64 0
  %40 = load i8, i8* %39, align 16
  %41 = sext i8 %40 to i32
  %42 = icmp sle i32 %41, 90
  br i1 %42, label %43, label %44

43:                                               ; preds = %38, %28, %13
  store i32 1, i32* %3, align 4
  br label %45

44:                                               ; preds = %38, %33
  store i32 0, i32* %3, align 4
  br label %45

45:                                               ; preds = %44, %43
  %46 = load i32, i32* %3, align 4
  %47 = icmp ne i32 %46, 0
  br i1 %47, label %48, label %109

48:                                               ; preds = %45
  store i32 1, i32* %5, align 4
  br label %49

49:                                               ; preds = %105, %48
  %50 = load i32, i32* %5, align 4
  %51 = load i32, i32* %4, align 4
  %52 = icmp slt i32 %50, %51
  br i1 %52, label %53, label %108

53:                                               ; preds = %49
  %54 = load i32, i32* %5, align 4
  %55 = sext i32 %54 to i64
  %56 = getelementptr inbounds [85 x i8], [85 x i8]* %6, i64 0, i64 %55
  %57 = load i8, i8* %56, align 1
  %58 = sext i8 %57 to i32
  %59 = icmp eq i32 %58, 95
  br i1 %59, label %102, label %60

60:                                               ; preds = %53
  %61 = load i32, i32* %5, align 4
  %62 = sext i32 %61 to i64
  %63 = getelementptr inbounds [85 x i8], [85 x i8]* %6, i64 0, i64 %62
  %64 = load i8, i8* %63, align 1
  %65 = sext i8 %64 to i32
  %66 = icmp sge i32 %65, 97
  br i1 %66, label %67, label %74

67:                                               ; preds = %60
  %68 = load i32, i32* %5, align 4
  %69 = sext i32 %68 to i64
  %70 = getelementptr inbounds [85 x i8], [85 x i8]* %6, i64 0, i64 %69
  %71 = load i8, i8* %70, align 1
  %72 = sext i8 %71 to i32
  %73 = icmp sle i32 %72, 122
  br i1 %73, label %102, label %74

74:                                               ; preds = %67, %60
  %75 = load i32, i32* %5, align 4
  %76 = sext i32 %75 to i64
  %77 = getelementptr inbounds [85 x i8], [85 x i8]* %6, i64 0, i64 %76
  %78 = load i8, i8* %77, align 1
  %79 = sext i8 %78 to i32
  %80 = icmp sge i32 %79, 65
  br i1 %80, label %81, label %88

81:                                               ; preds = %74
  %82 = load i32, i32* %5, align 4
  %83 = sext i32 %82 to i64
  %84 = getelementptr inbounds [85 x i8], [85 x i8]* %6, i64 0, i64 %83
  %85 = load i8, i8* %84, align 1
  %86 = sext i8 %85 to i32
  %87 = icmp sle i32 %86, 90
  br i1 %87, label %102, label %88

88:                                               ; preds = %81, %74
  %89 = load i32, i32* %5, align 4
  %90 = sext i32 %89 to i64
  %91 = getelementptr inbounds [85 x i8], [85 x i8]* %6, i64 0, i64 %90
  %92 = load i8, i8* %91, align 1
  %93 = sext i8 %92 to i32
  %94 = icmp sge i32 %93, 48
  br i1 %94, label %95, label %103

95:                                               ; preds = %88
  %96 = load i32, i32* %5, align 4
  %97 = sext i32 %96 to i64
  %98 = getelementptr inbounds [85 x i8], [85 x i8]* %6, i64 0, i64 %97
  %99 = load i8, i8* %98, align 1
  %100 = sext i8 %99 to i32
  %101 = icmp sle i32 %100, 57
  br i1 %101, label %102, label %103

102:                                              ; preds = %95, %81, %67, %53
  store i32 1, i32* %3, align 4
  br label %104

103:                                              ; preds = %95, %88
  store i32 0, i32* %3, align 4
  br label %108

104:                                              ; preds = %102
  br label %105

105:                                              ; preds = %104
  %106 = load i32, i32* %5, align 4
  %107 = add nsw i32 %106, 1
  store i32 %107, i32* %5, align 4
  br label %49

108:                                              ; preds = %103, %49
  br label %109

109:                                              ; preds = %108, %45
  %110 = load i32, i32* %3, align 4
  %111 = icmp ne i32 %110, 0
  br i1 %111, label %112, label %114

112:                                              ; preds = %109
  %113 = call i32 (i8*, ...) @printf(i8* getelementptr inbounds ([3 x i8], [3 x i8]* @.str.1, i64 0, i64 0))
  br label %116

114:                                              ; preds = %109
  %115 = call i32 (i8*, ...) @printf(i8* getelementptr inbounds ([3 x i8], [3 x i8]* @.str.2, i64 0, i64 0))
  br label %116

116:                                              ; preds = %114, %112
  br label %117

117:                                              ; preds = %116
  %118 = load i32, i32* %1, align 4
  %119 = add nsw i32 %118, 1
  store i32 %119, i32* %1, align 4
  br label %9

120:                                              ; preds = %9
  ret void
}

declare dso_local i32 @__isoc99_scanf(i8*, ...) #1

declare dso_local i32 @getchar() #1

declare dso_local i32 @gets(...) #1

; Function Attrs: nounwind readonly
declare dso_local i64 @strlen(i8*) #2

declare dso_local i32 @printf(i8*, ...) #1


!llvm.module.flags = !{!0}
!llvm.ident = !{!1}

!0 = !{i32 1, !"wchar_size", i32 4}
!1 = !{!"clang version 10.0.0-4ubuntu1 "}
