; ModuleID = 'source-C-CXX/57/702.c'
source_filename = "source-C-CXX/57/702.c"
target datalayout = "e-m:e-p270:32:32-p271:32:32-p272:64:64-i64:64-f80:128-n8:16:32:64-S128"
target triple = "x86_64-pc-linux-gnu"

%struct._IO_FILE = type { i32, i8*, i8*, i8*, i8*, i8*, i8*, i8*, i8*, i8*, i8*, i8*, %struct._IO_marker*, %struct._IO_FILE*, i32, i32, i64, i16, i8, [1 x i8], i8*, i64, %struct._IO_codecvt*, %struct._IO_wide_data*, %struct._IO_FILE*, i8*, i64, i32, [20 x i8] }
%struct._IO_marker = type opaque
%struct._IO_codecvt = type opaque
%struct._IO_wide_data = type opaque

@.str = private unnamed_addr constant [3 x i8] c"%d\00", align 1
@stdin = external local_unnamed_addr global %struct._IO_FILE*, align 8
@str = private unnamed_addr constant [2 x i8] c"0\00", align 1
@str.3 = private unnamed_addr constant [2 x i8] c"1\00", align 1

; Function Attrs: nounwind sspstrong uwtable
define dso_local void @main() local_unnamed_addr #0 {
  %1 = alloca i32, align 4
  %2 = alloca [85 x i8], align 16
  %3 = bitcast i32* %1 to i8*
  call void @llvm.lifetime.start.p0i8(i64 4, i8* nonnull %3) #6
  %4 = getelementptr inbounds [85 x i8], [85 x i8]* %2, i64 0, i64 0
  call void @llvm.lifetime.start.p0i8(i64 85, i8* nonnull %4) #6
  %5 = call i32 (i8*, ...) @__isoc99_scanf(i8* getelementptr inbounds ([3 x i8], [3 x i8]* @.str, i64 0, i64 0), i32* nonnull %1)
  %6 = load %struct._IO_FILE*, %struct._IO_FILE** @stdin, align 8, !tbaa !5
  %7 = call i32 @getc(%struct._IO_FILE* %6) #6
  %8 = load i32, i32* %1, align 4, !tbaa !9
  %9 = icmp slt i32 %8, 1
  br i1 %9, label %46, label %10

10:                                               ; preds = %0, %40
  %11 = phi i32 [ %43, %40 ], [ 1, %0 ]
  %12 = call i32 (i8*, ...) bitcast (i32 (...)* @gets to i32 (i8*, ...)*)(i8* nonnull %4) #6
  %13 = call i64 @strlen(i8* noundef nonnull %4) #7
  %14 = load i8, i8* %4, align 16, !tbaa !11
  %15 = icmp eq i8 %14, 95
  %16 = and i8 %14, -33
  %17 = add i8 %16, -65
  %18 = icmp ult i8 %17, 26
  %19 = or i1 %18, %15
  br i1 %19, label %20, label %40

20:                                               ; preds = %10
  %21 = trunc i64 %13 to i32
  %22 = icmp sgt i32 %21, 1
  br i1 %22, label %23, label %40

23:                                               ; preds = %20
  %24 = and i64 %13, 4294967295
  br label %27

25:                                               ; preds = %27
  %26 = icmp eq i64 %39, %24
  br i1 %26, label %40, label %27, !llvm.loop !12

27:                                               ; preds = %23, %25
  %28 = phi i64 [ 1, %23 ], [ %39, %25 ]
  %29 = getelementptr inbounds [85 x i8], [85 x i8]* %2, i64 0, i64 %28
  %30 = load i8, i8* %29, align 1, !tbaa !11
  %31 = icmp eq i8 %30, 95
  %32 = and i8 %30, -33
  %33 = add i8 %32, -65
  %34 = icmp ult i8 %33, 26
  %35 = or i1 %34, %31
  %36 = add i8 %30, -48
  %37 = icmp ult i8 %36, 10
  %38 = or i1 %35, %37
  %39 = add nuw nsw i64 %28, 1
  br i1 %38, label %25, label %40

40:                                               ; preds = %27, %25, %10, %20
  %41 = phi i8* [ getelementptr inbounds ([2 x i8], [2 x i8]* @str.3, i64 0, i64 0), %20 ], [ getelementptr inbounds ([2 x i8], [2 x i8]* @str, i64 0, i64 0), %10 ], [ getelementptr inbounds ([2 x i8], [2 x i8]* @str.3, i64 0, i64 0), %25 ], [ getelementptr inbounds ([2 x i8], [2 x i8]* @str, i64 0, i64 0), %27 ]
  %42 = call i32 @puts(i8* nonnull dereferenceable(1) %41)
  %43 = add nuw nsw i32 %11, 1
  %44 = load i32, i32* %1, align 4, !tbaa !9
  %45 = icmp slt i32 %11, %44
  br i1 %45, label %10, label %46, !llvm.loop !14

46:                                               ; preds = %40, %0
  call void @llvm.lifetime.end.p0i8(i64 85, i8* nonnull %4) #6
  call void @llvm.lifetime.end.p0i8(i64 4, i8* nonnull %3) #6
  ret void
}

; Function Attrs: argmemonly mustprogress nofree nosync nounwind willreturn
declare void @llvm.lifetime.start.p0i8(i64 immarg, i8* nocapture) #1

; Function Attrs: nofree nounwind
declare noundef i32 @__isoc99_scanf(i8* nocapture noundef readonly, ...) local_unnamed_addr #2

declare i32 @gets(...) local_unnamed_addr #3

; Function Attrs: argmemonly mustprogress nofree nounwind readonly willreturn
declare i64 @strlen(i8* nocapture) local_unnamed_addr #4

; Function Attrs: argmemonly mustprogress nofree nosync nounwind willreturn
declare void @llvm.lifetime.end.p0i8(i64 immarg, i8* nocapture) #1

; Function Attrs: nofree nounwind
declare noundef i32 @getc(%struct._IO_FILE* nocapture noundef) local_unnamed_addr #2

; Function Attrs: nofree nounwind
declare noundef i32 @puts(i8* nocapture noundef readonly) local_unnamed_addr #5


!llvm.module.flags = !{!0, !1, !2, !3}
!llvm.ident = !{!4}

!0 = !{i32 1, !"wchar_size", i32 4}
!1 = !{i32 7, !"PIC Level", i32 2}
!2 = !{i32 7, !"PIE Level", i32 2}
!3 = !{i32 7, !"uwtable", i32 1}
!4 = !{!"clang version 13.0.0"}
!5 = !{!6, !6, i64 0}
!6 = !{!"any pointer", !7, i64 0}
!7 = !{!"omnipotent char", !8, i64 0}
!8 = !{!"Simple C/C++ TBAA"}
!9 = !{!10, !10, i64 0}
!10 = !{!"int", !7, i64 0}
!11 = !{!7, !7, i64 0}
!12 = distinct !{!12, !13}
!13 = !{!"llvm.loop.mustprogress"}
!14 = distinct !{!14, !13}
